; Function Attrs: mustprogress uwtable
define dso_local void @_ZN6mygame7Monster8CopyFromERKN6google8protobuf7MessageE(ptr noundef nonnull align 8 dereferenceable(112) %this, ptr noundef nonnull align 8 dereferenceable(16) %from) unnamed_addr #3 align 2 personality ptr @__gxx_personality_v0 {
entry:
  %cmp = icmp eq ptr %from, %this
  br i1 %cmp, label %return, label %if.end

if.end:                                           ; preds = %entry
  tail call void @_ZN6mygame7Monster5ClearEv(ptr noundef nonnull align 8 dereferenceable(112) %this)
  %0 = tail call ptr @__dynamic_cast(ptr nonnull %from, ptr nonnull @_ZTIN6google8protobuf7MessageE, ptr nonnull @_ZTIN6mygame7MonsterE, i64 0) #22
  %cmp8.i = icmp eq ptr %0, null
  br i1 %cmp8.i, label %if.then.i, label %if.else.i

if.then.i:                                        ; preds = %if.end
  tail call void @_ZN6google8protobuf8internal13ReflectionOps5MergeERKNS0_7MessageEPS3_(ptr noundef nonnull align 8 dereferenceable(16) %from, ptr noundef nonnull %this)
  br label %return

if.else.i:                                        ; preds = %if.end
  tail call void @_ZN6mygame7Monster9MergeFromERKS0_(ptr noundef nonnull align 8 dereferenceable(112) %this, ptr noundef nonnull align 8 dereferenceable(112) %0)
  br label %return

return:                                           ; preds = %if.else.i, %if.then.i, %entry
  ret void
}